target datalayout = "e-m:e-p270:32:32-p271:32:32-p272:64:64-i64:64-i128:128-f80:128-n8:16:32:64-S128"
target triple = "x86_64-pc-linux-gnu"

%"class.icu_77::FieldPositionOnlyHandler" = type <{ %"class.icu_77::FieldPositionHandler.base", [4 x i8], ptr, i8, i8, [6 x i8] }>
%"class.icu_77::FieldPositionHandler.base" = type <{ ptr, i32 }>
%"class.icu_77::FieldPosition" = type <{ %"class.icu_77::UObject", i32, i32, i32, [4 x i8] }>
%"class.icu_77::UObject" = type { ptr }

; Function Attrs: mustprogress nounwind uwtable
define linkonce_odr noundef i32 @_ZNK6icu_7713FieldPosition8getFieldEv(ptr noundef nonnull align 8 dereferenceable(20) %0) #0 comdat align 2 {
  %2 = alloca ptr, align 8
  store ptr %0, ptr %2, align 8, !tbaa !14
  %3 = load ptr, ptr %2, align 8
  %4 = getelementptr inbounds nuw %"class.icu_77::FieldPosition", ptr %3, i32 0, i32 1
  %5 = load i32, ptr %4, align 8, !tbaa !22
  ret i32 %5
}

; Function Attrs: mustprogress uwtable
define noundef signext i8 @_ZNK6icu_7724FieldPositionOnlyHandler11isRecordingEv(ptr noundef nonnull align 8 dereferenceable(26) %0) unnamed_addr #4 align 2 {
  %2 = alloca ptr, align 8
  store ptr %0, ptr %2, align 8, !tbaa !12
  %3 = load ptr, ptr %2, align 8
  %4 = getelementptr inbounds nuw %"class.icu_77::FieldPositionOnlyHandler", ptr %3, i32 0, i32 2
  %5 = load ptr, ptr %4, align 8, !tbaa !21
  %6 = call noundef i32 @_ZNK6icu_7713FieldPosition8getFieldEv(ptr noundef nonnull align 8 dereferenceable(20) %5)
  %7 = icmp ne i32 %6, -1
  %8 = zext i1 %7 to i8
  ret i8 %8
}