; Function Attrs: mustprogress nofree norecurse nosync nounwind willreturn memory(read, inaccessiblemem: none) uwtable
define noundef signext range(i8 0, 2) i8 @_ZNK6icu_7724FieldPositionOnlyHandler11isRecordingEv(ptr noundef nonnull readonly align 8 captures(none) dereferenceable(26) %0) unnamed_addr #7 align 2 {
  %2 = getelementptr inbounds nuw i8, ptr %0, i64 16
  %3 = load ptr, ptr %2, align 8, !tbaa !16
  %4 = getelementptr inbounds nuw i8, ptr %3, i64 8
  %5 = load i32, ptr %4, align 8, !tbaa !17
  %6 = icmp ne i32 %5, -1
  %7 = zext i1 %6 to i8
  ret i8 %7
}